; Function Attrs: mustprogress nounwind uwtable
define dso_local noundef zeroext i1 @_ZNK4llvm17AArch64AuthMCExpr25evaluateAsRelocatableImplERNS_7MCValueEPKNS_11MCAssemblerEPKNS_7MCFixupE(ptr nocapture noundef nonnull readonly align 8 dereferenceable(40) %0, ptr noundef nonnull align 8 dereferenceable(28) %1, ptr noundef %2, ptr noundef %3) unnamed_addr #0 align 2 {
  %5 = getelementptr inbounds nuw i8, ptr %0, i64 24
  %6 = load ptr, ptr %5, align 8
  %7 = tail call noundef zeroext i1 @_ZNK4llvm6MCExpr21evaluateAsRelocatableERNS_7MCValueEPKNS_11MCAssemblerEPKNS_7MCFixupE(ptr noundef nonnull align 8 dereferenceable(16) %6, ptr noundef nonnull align 8 dereferenceable(28) %1, ptr noundef %2, ptr noundef %3) #8
  br i1 %7, label %8, label %15

8:                                                ; preds = %4
  %9 = getelementptr inbounds nuw i8, ptr %1, i64 8
  %10 = load ptr, ptr %9, align 8
  %.not = icmp eq ptr %10, null
  br i1 %.not, label %12, label %11

11:                                               ; preds = %8
  tail call void @_ZN4llvm18report_fatal_errorEPKcb(ptr noundef nonnull @.str.49, i1 noundef zeroext true) #9
  unreachable

12:                                               ; preds = %8
  %13 = getelementptr inbounds nuw i8, ptr %0, i64 32
  %14 = load i32, ptr %13, align 8
  %.sroa.4.0..sroa_idx = getelementptr inbounds i8, ptr %1, i64 24
  store i32 %14, ptr %.sroa.4.0..sroa_idx, align 8
  br label %15

15:                                               ; preds = %4, %12
  ret i1 %7
}